(dp1
S'files'
p2
(dp3
S'rtf_celery'
p4
(dp5
S'index'
p6
(dp7
S'html_filename'
p8
S'rtf_celery.html'
p9
sS'name'
p10
S'rtf/celery'
p11
sS'nums'
p12
ccopy_reg
_reconstructor
p13
(ccoverage.results
Numbers
p14
c__builtin__
object
p15
NtRp16
(dp17
S'n_files'
p18
I1
sS'n_branches'
p19
I0
sS'n_statements'
p20
I10
sS'n_excluded'
p21
I0
sS'n_partial_branches'
p22
I0
sS'n_missing'
p23
I1
sS'n_missing_branches'
p24
I0
sbssS'hash'
p25
S'\x90=j\xfe5\xcb\xdf\xea2FB\xb8\x96jO0'
p26
ssS'rtfapp___init__'
p27
(dp28
g6
(dp29
g8
S'rtfapp___init__.html'
p30
sg10
S'rtfapp/__init__'
p31
sg12
g13
(g14
g15
NtRp32
(dp33
g18
I1
sg19
I0
sg20
I0
sg21
I0
sg22
I0
sg23
I0
sg24
I0
sbssg25
S'\xca\xf5\x9f\x7f\x88\xdfa\x831|T\x1d\xbc}\xa5v'
p34
ssS'rtfapp_tasks'
p35
(dp36
g6
(dp37
g8
S'rtfapp_tasks.html'
p38
sg10
S'rtfapp/tasks'
p39
sg12
g13
(g14
g15
NtRp40
(dp41
g18
I1
sg19
I0
sg20
I34
sg21
I0
sg22
I0
sg23
I28
sg24
I0
sbssg25
S'"(`\\\xc6\xb0]J\x08\x12\x88\xacVDS='
p42
ssS'rtfapp_views'
p43
(dp44
g6
(dp45
S'html_filename'
p46
S'rtfapp_views.html'
p47
sS'name'
p48
S'rtfapp/views'
p49
sS'nums'
p50
g13
(g14
g15
NtRp51
(dp52
g18
I1
sg19
I0
sg20
I323
sg21
I0
sg22
I0
sg23
I117
sg24
I0
sbssg25
S"'\xb4}vf<\x90[<C\x06\xeb\x05\xe7t\xdd"
p53
ssS'manage'
p54
(dp55
g6
(dp56
g8
S'manage.html'
p57
sg10
g54
sg12
g13
(g14
g15
NtRp58
(dp59
g18
I1
sg19
I0
sg20
I6
sg21
I0
sg22
I0
sg23
I0
sg24
I0
sbssg25
S'&b(\x12R\xd9\xed\xdc"c\xd9Y\tL\x92q'
p60
ssS'rtfapp_admin'
p61
(dp62
g6
(dp63
g8
S'rtfapp_admin.html'
p64
sg10
S'rtfapp/admin'
p65
sg12
g13
(g14
g15
NtRp66
(dp67
g18
I1
sg19
I0
sg20
I10
sg21
I0
sg22
I0
sg23
I0
sg24
I0
sbssg25
S'\xc9I{\x1e\x9e\x9bG_Tt}\xd9\x86\xfb\xba\xea'
p68
ssS'rtf___init__'
p69
(dp70
g6
(dp71
g8
S'rtf___init__.html'
p72
sg10
S'rtf/__init__'
p73
sg12
g13
(g14
g15
NtRp74
(dp75
g18
I1
sg19
I0
sg20
I2
sg21
I0
sg22
I0
sg23
I0
sg24
I0
sbssg25
S'\xe6\x86\xb9\xa2~F\x05F\x82\x16s\x1b\xba\xcf\x12\xab'
p76
ssS'rtfapp_tests_test_TrailSegment'
p77
(dp78
g6
(dp79
g8
S'rtfapp_tests_test_TrailSegment.html'
p80
sg10
S'rtfapp/tests/test_TrailSegment'
p81
sg12
g13
(g14
g15
NtRp82
(dp83
g18
I1
sg19
I0
sg20
I7
sg21
I0
sg22
I0
sg23
I0
sg24
I0
sbssg25
S'\xd2Z\xab\xd4\x1e\xab\xeb&),Z@\x84\x84\x1f5'
p84
ssS'rtfapp_managers_DBManager'
p85
(dp86
g6
(dp87
g46
S'rtfapp_managers_DBManager.html'
p88
sg48
S'rtfapp/managers/DBManager'
p89
sg50
g13
(g14
g15
NtRp90
(dp91
g18
I1
sg19
I0
sg20
I176
sg21
I0
sg22
I0
sg23
I10
sg24
I0
sbssg25
S'\xdc\xff\xe3i\xda\xf5<6\xc0\x9f\xbd\x1d\xcd\x95\xac\xc7'
p92
ssS'rtfapp_migrations___init__'
p93
(dp94
g6
(dp95
g8
S'rtfapp_migrations___init__.html'
p96
sg10
S'rtfapp/migrations/__init__'
p97
sg12
g13
(g14
g15
NtRp98
(dp99
g18
I1
sg19
I0
sg20
I0
sg21
I0
sg22
I0
sg23
I0
sg24
I0
sbssg25
S'\xca\xf5\x9f\x7f\x88\xdfa\x831|T\x1d\xbc}\xa5v'
p100
ssS'rtfapp_tests_test_LocationObjects'
p101
(dp102
g6
(dp103
g8
S'rtfapp_tests_test_LocationObjects.html'
p104
sg10
S'rtfapp/tests/test_LocationObjects'
p105
sg12
g13
(g14
g15
NtRp106
(dp107
g18
I1
sg19
I0
sg20
I135
sg21
I0
sg22
I0
sg23
I0
sg24
I0
sbssg25
S'=\xd7\x94\xd5\xb9\xd3:\xf3:P\x97Vk\xe5\x93\x9f'
p108
ssS'rtfapp_tests_test_intersection_view'
p109
(dp110
g6
(dp111
g8
S'rtfapp_tests_test_intersection_view.html'
p112
sg10
S'rtfapp/tests/test_intersection_view'
p113
sg12
g13
(g14
g15
NtRp114
(dp115
g18
I1
sg19
I0
sg20
I27
sg21
I0
sg22
I0
sg23
I0
sg24
I0
sbssg25
S'<\xf32\xba\x1cc\xf5o\xa7\x8b\xe1\xcc\xb3\x85\xc3J'
p116
ssS'rtfapp_managers_LocationObjects'
p117
(dp118
g6
(dp119
g46
S'rtfapp_managers_LocationObjects.html'
p120
sg48
S'rtfapp/managers/LocationObjects'
p121
sg50
g13
(g14
g15
NtRp122
(dp123
g18
I1
sg19
I0
sg20
I100
sg21
I0
sg22
I0
sg23
I0
sg24
I0
sbssg25
S'\x84\x93(\xf2\xc9\xd36C\x83\xd2\xc6\\\xcd"<\xc1'
p124
ssS'rtfapp_migrations_0008_parcel_distance_to_trail'
p125
(dp126
g6
(dp127
g8
S'rtfapp_migrations_0008_parcel_distance_to_trail.html'
p128
sg10
S'rtfapp/migrations/0008_parcel_distance_to_trail'
p129
sg12
g13
(g14
g15
NtRp130
(dp131
g18
I1
sg19
I0
sg20
I5
sg21
I0
sg22
I0
sg23
I0
sg24
I0
sbssg25
S'\xe7\xea \x99\x93\x9bk\xecX\xd8f\x17\t\xed\xf5\xd5'
p132
ssS'rtfapp_tests_test_DBManager'
p133
(dp134
g6
(dp135
g46
S'rtfapp_tests_test_DBManager.html'
p136
sg48
S'rtfapp/tests/test_DBManager'
p137
sg50
g13
(g14
g15
NtRp138
(dp139
g18
I1
sg19
I0
sg20
I301
sg21
I0
sg22
I0
sg23
I0
sg24
I0
sbssg25
S'7\x08]\xee\xf9*{\x17\xb2-\xdd,\x9a\x9d\x1a\xd1'
p140
ssS'rtfapp_tests_test_FileSystemManager'
p141
(dp142
g6
(dp143
g8
S'rtfapp_tests_test_FileSystemManager.html'
p144
sg10
S'rtfapp/tests/test_FileSystemManager'
p145
sg12
g13
(g14
g15
NtRp146
(dp147
g18
I1
sg19
I0
sg20
I128
sg21
I0
sg22
I0
sg23
I2
sg24
I0
sbssg25
S"\xdf\xa8\xcb\xe7\xbb\x7f+f\x07y\x02\xd4'\xa38\\"
p148
ssS'rtfapp_tests_test_maintenance_request'
p149
(dp150
g6
(dp151
g8
S'rtfapp_tests_test_maintenance_request.html'
p152
sg10
S'rtfapp/tests/test_maintenance_request'
p153
sg12
g13
(g14
g15
NtRp154
(dp155
g18
I1
sg19
I0
sg20
I74
sg21
I0
sg22
I0
sg23
I0
sg24
I0
sbssg25
S'fg\xbc\xc5!W\xcbA\xef\xc9\xdd\xa3\x7f\xcc(\xbe'
p156
ssS'rtf_settings'
p157
(dp158
g6
(dp159
g8
S'rtf_settings.html'
p160
sg10
S'rtf/settings'
p161
sg12
g13
(g14
g15
NtRp162
(dp163
g18
I1
sg19
I0
sg20
I26
sg21
I0
sg22
I0
sg23
I0
sg24
I0
sbssg25
S']%\x17\xc0\\\xc1x\xe8Y(G.\xd1I\xc18'
p164
ssS'rtf_urls'
p165
(dp166
g6
(dp167
g8
S'rtf_urls.html'
p168
sg10
S'rtf/urls'
p169
sg12
g13
(g14
g15
NtRp170
(dp171
g18
I1
sg19
I0
sg20
I3
sg21
I0
sg22
I0
sg23
I0
sg24
I0
sbssg25
S'\x12\x92\xe9=\xfb\x91e\x1b]4\x05U\x92l\x1a\x81'
p172
ssS'rtfapp_managers_KMZManager'
p173
(dp174
g6
(dp175
g8
S'rtfapp_managers_KMZManager.html'
p176
sg10
S'rtfapp/managers/KMZManager'
p177
sg12
g13
(g14
g15
NtRp178
(dp179
g18
I1
sg19
I0
sg20
I93
sg21
I0
sg22
I0
sg23
I0
sg24
I0
sbssg25
S'\x151^\x84\xbdGKK0~b\xedH\x11\x03C'
p180
ssS'rtfapp_migrations_0001_initial'
p181
(dp182
g6
(dp183
g8
S'rtfapp_migrations_0001_initial.html'
p184
sg10
S'rtfapp/migrations/0001_initial'
p185
sg12
g13
(g14
g15
NtRp186
(dp187
g18
I1
sg19
I0
sg20
I6
sg21
I0
sg22
I0
sg23
I0
sg24
I0
sbssg25
S'\xa1\xd3,\x04I#\xd1\xaa\x99\x95\x18\xc4\xaa\x04O\x07'
p188
ssS'rtfapp_forms'
p189
(dp190
g6
(dp191
g8
S'rtfapp_forms.html'
p192
sg10
S'rtfapp/forms'
p193
sg12
g13
(g14
g15
NtRp194
(dp195
g18
I1
sg19
I0
sg20
I19
sg21
I0
sg22
I0
sg23
I0
sg24
I0
sbssg25
S'\x9c\x17\xf9\xcd\xa1l>\xbbm_\xe8\xdaE\x9b\xda\x13'
p196
ssS'rtfapp_migrations_0009_auto_20160328_0120'
p197
(dp198
S'index'
p199
(dp200
g46
S'rtfapp_migrations_0009_auto_20160328_0120.html'
p201
sg48
S'rtfapp/migrations/0009_auto_20160328_0120'
p202
sg50
g13
(g14
g15
NtRp203
(dp204
g18
I1
sg19
I0
sg20
I5
sg21
I0
sg22
I0
sg23
I0
sg24
I0
sbssS'hash'
p205
S'B+\xa2(\x99\xcb\xf4\xf9\x1d\xfe\\QI\x18?\xd2'
p206
ssS'rtfapp_managers___init__'
p207
(dp208
g6
(dp209
g8
S'rtfapp_managers___init__.html'
p210
sg10
S'rtfapp/managers/__init__'
p211
sg12
g13
(g14
g15
NtRp212
(dp213
g18
I1
sg19
I0
sg20
I0
sg21
I0
sg22
I0
sg23
I0
sg24
I0
sbssg25
S'\xca\xf5\x9f\x7f\x88\xdfa\x831|T\x1d\xbc}\xa5v'
p214
ssS'rtfapp_tests_test_DBFunctions'
p215
(dp216
g6
(dp217
g8
S'rtfapp_tests_test_DBFunctions.html'
p218
sg10
S'rtfapp/tests/test_DBFunctions'
p219
sg12
g13
(g14
g15
NtRp220
(dp221
g18
I1
sg19
I0
sg20
I22
sg21
I0
sg22
I0
sg23
I0
sg24
I0
sbssg25
S'\xb9\x91w\xdeG!\xbas=l|\xee\n7\xa2\xed'
p222
ssS'rtfapp_managers_SHPManager'
p223
(dp224
g6
(dp225
g8
S'rtfapp_managers_SHPManager.html'
p226
sg10
S'rtfapp/managers/SHPManager'
p227
sg12
g13
(g14
g15
NtRp228
(dp229
g18
I1
sg19
I0
sg20
I173
sg21
I0
sg22
I0
sg23
I51
sg24
I0
sbssg25
S'\xea\x01\x8e\xf2x\x02f$\x1e_w\x8c\x89V\xc3\x90'
p230
ssS'rtfapp_urls'
p231
(dp232
g6
(dp233
g8
S'rtfapp_urls.html'
p234
sg10
S'rtfapp/urls'
p235
sg12
g13
(g14
g15
NtRp236
(dp237
g18
I1
sg19
I0
sg20
I4
sg21
I0
sg22
I0
sg23
I0
sg24
I0
sbssg25
S'f\xae\x19\x00pc\xac\xe2\xad\xdf\x13V+vI '
p238
ssS'rtfapp_tests_test_login_admin'
p239
(dp240
g6
(dp241
g8
S'rtfapp_tests_test_login_admin.html'
p242
sg10
S'rtfapp/tests/test_login_admin'
p243
sg12
g13
(g14
g15
NtRp244
(dp245
g18
I1
sg19
I0
sg20
I73
sg21
I0
sg22
I0
sg23
I7
sg24
I0
sbssg25
S'!\xffb\xd3\x06A\x1e\xbd\x84\xea\xf2\xc6bm\xfd7'
p246
ssS'rtfapp_tests_test_KMZManager'
p247
(dp248
g6
(dp249
g8
S'rtfapp_tests_test_KMZManager.html'
p250
sg10
S'rtfapp/tests/test_KMZManager'
p251
sg12
g13
(g14
g15
NtRp252
(dp253
g18
I1
sg19
I0
sg20
I191
sg21
I0
sg22
I0
sg23
I0
sg24
I0
sbssg25
S'\xc1jX\x04\x00o\x9a\xf5+*\xed\xe4\xa3\xbe\xfb\xbd'
p254
ssS'rtfapp_tests_test_view_other'
p255
(dp256
g6
(dp257
g46
S'rtfapp_tests_test_view_other.html'
p258
sg48
S'rtfapp/tests/test_view_other'
p259
sg50
g13
(g14
g15
NtRp260
(dp261
g18
I1
sg19
I0
sg20
I70
sg21
I0
sg22
I0
sg23
I1
sg24
I0
sbssg25
S'\xac\xc8Q\xacXa\xf8\x14 \xfe\xce\x8c\x12e\xb9\x9d'
p262
ssS'rtfapp_tests_test_trail_annotations'
p263
(dp264
g6
(dp265
g8
S'rtfapp_tests_test_trail_annotations.html'
p266
sg10
S'rtfapp/tests/test_trail_annotations'
p267
sg12
g13
(g14
g15
NtRp268
(dp269
g18
I1
sg19
I0
sg20
I46
sg21
I0
sg22
I0
sg23
I0
sg24
I0
sbssg25
S'G\xa8`%\x8d\x9e\xad\x15pI\xf7\xe9\xe2\xaaC\x1c'
p270
ssS'rtfapp_tests_test_SHPManager'
p271
(dp272
g6
(dp273
g8
S'rtfapp_tests_test_SHPManager.html'
p274
sg10
S'rtfapp/tests/test_SHPManager'
p275
sg12
g13
(g14
g15
NtRp276
(dp277
g18
I1
sg19
I0
sg20
I194
sg21
I0
sg22
I0
sg23
I0
sg24
I0
sbssg25
S'0^]\x88\xe0\xb7Y\xf1C\xe9\xce\xd9\xa0\x8d\x8af'
p278
ssS'rtf_wsgi'
p279
(dp280
g6
(dp281
g8
S'rtf_wsgi.html'
p282
sg10
S'rtf/wsgi'
p283
sg12
g13
(g14
g15
NtRp284
(dp285
g18
I1
sg19
I0
sg20
I4
sg21
I0
sg22
I0
sg23
I4
sg24
I0
sbssg25
S'\x1c:9\xcc\x15\xc3\x8a\xd2\x0cC)\x0e\xddd\xa2\x93'
p286
ssS'settings'
p287
(dp288
g6
(dp289
g8
S'settings.html'
p290
sg10
g287
sg12
g13
(g14
g15
NtRp291
(dp292
g18
I1
sg19
I0
sg20
I17
sg21
I0
sg22
I0
sg23
I17
sg24
I0
sbssg25
S'\x82<\xed_\xdd\xce\xb2\xe9\x0e\xcdoOc\x98\x8a\x9b'
p293
ssS'rtfapp_tests_test_parcels'
p294
(dp295
g6
(dp296
g46
S'rtfapp_tests_test_parcels.html'
p297
sg48
S'rtfapp/tests/test_parcels'
p298
sg50
g13
(g14
g15
NtRp299
(dp300
g18
I1
sg19
I0
sg20
I99
sg21
I0
sg22
I0
sg23
I6
sg24
I0
sbssg25
S'\xcb\xb6=\x12\x98Rw\x84;Vo\xfbO\x03Pc'
p301
ssS'rtfapp_managers_FileSystemManager'
p302
(dp303
g6
(dp304
g8
S'rtfapp_managers_FileSystemManager.html'
p305
sg10
S'rtfapp/managers/FileSystemManager'
p306
sg12
g13
(g14
g15
NtRp307
(dp308
g18
I1
sg19
I0
sg20
I75
sg21
I0
sg22
I0
sg23
I6
sg24
I0
sbssg25
S'tR\x93\x1f*K\xb9\x1b%\x83*\xec\xe0s;Z'
p309
ssS'rtfapp_models'
p310
(dp311
g6
(dp312
g46
S'rtfapp_models.html'
p313
sg48
S'rtfapp/models'
p314
sg50
g13
(g14
g15
NtRp315
(dp316
g18
I1
sg19
I0
sg20
I56
sg21
I0
sg22
I0
sg23
I0
sg24
I0
sbssg25
S'\x94\xa7\x13\x9e\xe6\xd5\xc9\x88\x10\x8a\x11Tq\x06[\xd1'
p317
ssS'rtfapp_tests___init__'
p318
(dp319
g6
(dp320
g8
S'rtfapp_tests___init__.html'
p321
sg10
S'rtfapp/tests/__init__'
p322
sg12
g13
(g14
g15
NtRp323
(dp324
g18
I1
sg19
I0
sg20
I0
sg21
I0
sg22
I0
sg23
I0
sg24
I0
sbssg25
S'\xca\xf5\x9f\x7f\x88\xdfa\x831|T\x1d\xbc}\xa5v'
p325
sssS'version'
p326
S'3.7.1'
p327
sS'settings'
p328
S'\xc3itp\xbeQ\xa1\xad\x06xh\xd3\xee x4'
p329
sS'format'
p330
I1
s.